(lp0
F-0.039807762827149595
aF-1.2093774614390096
aF0.44848064155547052
aF0.4199840173674616
aF0.38902482111371572
aF1.1016748603316078
aF0.79236696170507948
aF0.10983620790275328
aF-0.85115384550625794
aF-0.64359741853298358
aF0.36475876176615607
aF0.27226837141412874
aF1.3615072460805138
aF1.146211767598031
aF0.56533984001103743
aF-0.29801412662297944
aF0.67860141334767832
aF0.56979642118227591
aF-0.72300915403605615
aF1.0082893115007123
aF-1.7423885421490746
aF0.56781911868346091
aF0.60140511394766172
aF-0.030025429794564573
aF-1.9479042406057783
aF-0.29379675592683174
aF-0.25669068415616092
aF0.069236882961703827
aF1.2342241743023949
aF1.1144869818355616
aF-0.66165160512350241
aF-0.65262338422576693
aF0.71928463083685923
aF0.88624108491588949
aF-1.261233788213092
aF-1.6929829605630884
aF-0.69959992765139489
aF0.6113397388937587
aF-0.23402118135505523
aF1.2285405433225902
aF-0.12178037449073642
aF-1.0708634478517896
aF0.98438013824128756
aF0.73787895276702109
aF-1.9739772474303683
aF-0.91699740809249608
aF1.9445897530843705
aF-1.2314255319236631
aF-0.46734669143305485
aF-0.69007222377083544
aF1.397413606741543
aF-0.98933017628046205
aF-0.36367179729098265
aF0.28787748383406386
aF0.51064490621529668
aF0.68676424702034256
aF-0.13412767952313054
aF0.91913530356758866
aF-1.8084099704690639
aF-1.3937914914731393
aF0.93075967099508272
aF1.2302612531642638
aF-1.3511006999209294
aF0.46493176692867744
aF-2.472893979740737
aF0.190292652878016
aF0.43835648050274933
aF1.0150605150845791
aF0.18071352862042511
aF-0.47745227094824738
aF-0.01598404643613982
aF-1.7297313406789754
aF1.5356004477497547
aF-0.79566921957548908
aF0.5321621035843096
aF0.95346889327975681
aF-0.70592000976893665
aF1.6131949932193921
aF-0.12148946932485361
aF0.4004814130558092
aF0.055084632776169595
aF0.28223570232542006
aF0.12900989591655732
aF-0.79559535153121574
aF0.97139035247277583
aF0.78541795163000572
aF0.14163413220569376
aF0.90883029982680696
aF0.23522451877714801
aF0.77765315908431543
aF-1.0611292911390744
aF-1.4694489400196193
aF0.090631340188335408
aF-0.89456370461241264
aF-2.2918921276467641
aF-0.39041137169910556
aF0.34829165767987558
aF-0.82181878466418512
aF-0.79582528554056164
aF-0.99244238738472301
aF0.40538090431053275
aF-0.085881823898403375
aF1.2638386800164554
aF-0.72968705380358001
aF-1.3310158720321374
aF1.0333458321446032
aF0.39241911936847496
aF0.45474184439770582
aF-1.1408351467863742
aF-1.1636296310922885
aF-0.12428550359116297
aF-0.37852803625944498
aF0.25703500689854897
aF-0.58552302500075681
aF1.1080986450006396
aF1.0359227655643428
aF0.69979858370578407
aF-0.73170234780991272
aF0.38943040643877236
aF-0.21861123114918479
aF-0.09558478398281256
aF1.1691872875830032
aF-0.48631966253699899
aF-0.042421254389698682
aF0.46078772788791778
aF0.82497419185958876
aF0.69809421449232545
aF-0.45476302928401768
aF-1.3835936064923153
aF1.0262409187504624
aF0.52800840816203998
aF0.45955840098419731
aF-0.30684893196968765
aF-0.81158919395308793
aF-1.1611581679311196
aF-0.77809519985864917
aF0.77149967245927176
aF0.016402795432298944
aF0.88454550530977727
aF0.77387822157810504
aF-0.15775735118980183
aF-1.7940613523306026
aF-0.88381203372349404
aF-0.24758926401065917
aF-0.074877423352259775
aF0.39287623648152215
aF1.0952682082506282
aF0.86571468911114469
aF0.95197364592692058
aF-1.0372896633392541
aF-0.7389598930108201
aF0.70198373777716405
aF-0.34475184158817163
aF-0.98976387788524711
aF-1.0462729442748655
aF0.65387519143343775
aF0.94752319665971285
aF1.2781614955319851
aF-0.52339856243197724
aF-0.93016421419102668
aF0.06261159808911243
aF1.1052936106672995
aF0.1418062210618003
aF0.32967296208049346
aF-0.0612303151713256
aF0.14906552667350592
aF-0.28182934244531577
aF0.99768700911058161
aF-2.7594160649624313
aF-0.97865026788556175
aF0.11411291794115153
aF-0.52746009562336393
aF-0.46472576002652932
aF-0.73144255585044027
aF1.0331288215116659
aF0.96862401438384893
aF0.71747253019404233
aF0.64703618389079587
aF0.80228585348363168
aF-0.012149719612298604
aF-0.01037365449615546
aF-1.2839813716343627
aF0.44949016462504954
aF-0.55714986915275455
aF0.34911727697610084
aF-0.82271241060728029
aF0.8197649032579637
aF-1.1188443859704567
aF0.19187977791607347
aF-1.5798862691921642
aF-2.5250886525696448
aF1.2712517544417836
aF-0.0095472903691407041
aF-0.69517830264966118
aF0.68342192059184548
aF0.25180235496073777
aF0.43092817634749991
aF-1.147109571324147
aF0.49127528377742147
aF-1.6458762852718847
aF0.43169141520232923
aF0.6546863102178162
aF-0.26208520112454181
aF1.0429205614521488
aF0.52416831873929226
aF-0.069322936575925809
aF0.66601455242740748
aF-0.26547710880399711
aF0.88706993403717593
aF0.063223794703908709
aF-0.1161975584142283
aF0.9397582830907778
aF-1.0853396301582054
aF1.396330680734827
aF-1.8139627225372665
aF-1.1347046572925539
aF-0.97241230347661478
aF0.85400272821665091
aF0.56621986356114906
aF1.4790025421764383
aF-0.0064624113127411675
aF-1.4383408614903233
aF0.83959298816310124
aF0.76536440355666446
aF0.45077742269187215
aF-0.18498632324580999
aF0.89207590536105741
aF-0.82872192024502001
aF-1.5341311451908783
aF0.79557245737328941
aF0.51029565275978905
aF0.82290113795082753
aF-0.67383546168062392
aF-1.6800106789548241
aF0.011051006640625083
aF1.086301207811637
aF0.95889442881339804
aF0.023425515358705518
aF0.16181710684955952
aF0.057515638512870115
aF-1.3262889763368699
aF0.92463205730303955
aF0.86928200295955893
aF-0.81747139159848459
aF0.85146641858105632
aF0.77080439869238404
aF0.18888387112920224
aF-0.35246275472119404
aF0.26516848697778173
aF-1.0341081601431323
aF1.1219350016235081
aF-1.8632612013584491
aF-1.0329063886339833
aF-1.7944459908435846
aF1.0919951770654932
aF0.7540467596520517
aF1.1152035519120505
aF-1.3685534842172511
aF1.0299543017266806
aF-1.6539602945731606
aF0.79773469343593284
aF0.76471082708605742
aF1.1928506679356428
aF1.3694160377146374
aF0.094843157357974661
aF0.45423972130040502
aF1.2812681212579955
aF0.024959268357631181
aF0.63272375582992879
aF0.36290352985903684
aF1.122990719375268
aF-1.0580758750929244
a.