(lp0
F-0.51656125678679565
aF0.31147616448799464
aF0.65557196417425789
aF-0.23109357529033048
aF0.49045120111565232
aF-0.69342052475222582
aF0.33818603836137129
aF-0.024535702200544129
aF0.046601516955324662
aF0.47069907694870849
aF-0.0059634366688303686
aF0.4484784069662302
aF-0.80268360360984969
aF0.18061983374113044
aF-0.9710507227242533
aF0.47170497622971741
aF-0.36781061804724491
aF0.41706319288642746
aF0.16019835379271097
aF0.17885129679808998
aF0.84167806014350344
aF-1.1057815133333495
aF-0.072040856336224479
aF0.37995358396549772
a.