(lp0
F0.0070739594246620463
aF0.53073398099249758
aF0.48259570504108229
aF-1.1284086573621153
aF-0.044935224109337923
aF-0.36697950664132328
aF-0.34715426291836593
aF-0.30889266819943417
aF0.24667677055379
aF-0.059137230214852732
aF0.109948991966478
aF-0.36364373076811685
aF-0.57848883549001284
aF0.15910803321590583
aF0.81623300650201625
aF-2.8724990961159707
aF0.47169516226407726
aF0.48936482366709111
aF0.42265051527393105
aF0.48078008390601745
aF-0.7307972026647489
aF-0.75917801403359064
aF0.25494241125855055
aF0.25004459046715688
aF0.45293260584388051
aF-0.74201326449669125
aF0.3922544956338303
aF0.77106179221874882
aF0.89713343823531222
aF0.01554688183634978
aF0.11767444431574958
aF-0.76096432180834661
aF-0.0057770327132411481
aF-0.68385844881058855
aF-0.27903432925838478
aF0.014082030927246247
aF-1.7201390945778963
aF0.22020256309181008
aF-1.477304552842392
aF-0.044234478488977658
aF0.34457998576782023
aF0.33124896131849724
aF-1.5730150949301227
aF1.087731166759661
aF-0.074347612640283778
aF0.55997588076074223
aF0.63269490085490165
aF-0.41968590091344193
aF0.29138053014524434
aF0.17512129888664107
aF0.49704882735611733
aF0.3697627884147181
aF0.52635661910967357
aF-0.077727621685370174
aF0.22088202822744973
aF0.56375491204833139
aF0.13727779470591894
aF-0.39773312890970658
aF0.14720993841955377
aF0.76157802650664408
aF0.5245929347687257
aF-0.66081657148415962
a.