(lp0
F-0.84838186501941193
aF0.84913698791473813
aF0.62859802291480715
aF0.16712970284647266
aF-1.3067398435001474
aF-1.6600801553315705
aF-0.77416314118659635
aF0.076901536783802182
aF-0.2496063147922607
aF1.0631973005142248
aF-0.076393990643124354
aF-0.7476030215067162
aF0.99648286405204622
aF-0.32457879110027577
aF-1.5482243400074274
aF-0.087763406040066272
aF-1.0294607326747518
aF0.087608972832639687
aF-0.63782211528529142
aF0.86920119832523923
aF-0.20152577069000444
aF-2.17440394357246
aF-0.96937748602428631
aF0.079347099474687433
aF-1.6646678786870286
aF0.86882994858223928
aF0.050144901108652995
aF0.58028962128689798
aF0.79491471389831503
aF-0.085580556509396999
aF-0.0059594844565067362
aF-1.8621741357336363
aF-0.96093451235162197
aF-0.022836696984686711
aF0.93290688801219446
aF-0.18754033420121008
aF-0.85788332025870506
aF0.028949764657443033
aF-0.0094475998981788933
aF-0.36659984286143121
aF-1.0711458270867809
aF-1.0469553454384188
aF0.070475544334720031
aF-0.67450688704835926
aF0.95855997214911426
aF-0.81727530260472347
aF0.71686610654549021
aF0.87800046640928198
aF1.0828223746931549
aF-0.15415237381931668
aF-1.7447717214077074
aF0.04158176239912148
aF0.8368749955453989
aF-1.4949550395479205
aF0.1402560350578792
aF-0.60489634359444722
aF0.77033975533405474
aF-1.617918154934928
aF-0.34560637426962959
aF-0.40457771176723556
aF0.72719580450287324
aF-2.190016154118922
aF-0.33230457165471705
aF-0.1348764773820692
aF0.078109661863321023
aF0.77224860624490255
aF0.086130070220005184
aF0.73979803033139468
aF0.22547749567521613
aF-1.0391457761656877
aF0.5124040997492445
aF-0.94309750215849686
aF-1.8898612040564613
aF0.90522459620870954
aF0.11346769258934941
aF-0.046923908741372422
aF-0.78795232320393893
aF0.29438597670971189
aF0.84764461233397626
aF0.71434472552057304
aF-0.19752139563489823
aF0.089808680709442257
aF-0.66867081516327209
aF-0.70632473771131021
aF-0.29215808778092622
aF-0.86943900922562012
aF-1.4779678295478114
aF-0.78114699105048713
aF0.65112459284450352
aF-1.2476777458219184
aF0.30668538260525979
aF-1.0538157632069867
aF-0.073750245770225931
aF-0.1311626878284633
aF0.033620439080048747
aF-0.37725930294551446
aF-1.7481045007339469
aF0.38618052131421088
aF-0.83212888273933361
aF0.62288333345474189
aF-0.33442246807110543
aF0.42901960536419104
aF0.058694683769858091
aF-0.91596389979376447
aF0.11396424763315771
aF0.71710504833371225
aF-1.0256931119093977
aF0.22073853488475237
aF-0.2981018022601436
aF-0.13712751583464389
aF-0.43132518526905805
aF-1.0200098285769386
aF-0.9660184904700202
aF-0.70028082298337058
aF-2.3359469583631416
aF0.32161905580123484
aF0.48996679784176056
aF-1.0033843924383001
aF-0.44301064588109096
aF1.1115252187495468
aF-0.70755668754241885
aF-0.15959944558050232
aF-0.026451905303271239
aF-0.11005532315526789
aF0.81301094232390358
aF0.54617230221750512
aF-0.92993360888468368
aF1.2332933639884134
aF-1.5910254972533284
aF-0.058775414952037863
aF1.1268050484821961
aF0.84918719869549975
aF-1.4184975543478173
aF-0.3829834923270079
aF-0.20956746122290237
aF0.021354419505513977
aF0.10231585087823092
aF-0.024348858394650286
aF-1.5598751880505195
aF-1.6014598516179253
aF0.13911687710834864
aF-0.13197033784197387
aF-0.19983183435719098
aF0.48252468068261445
aF-0.38465066044179252
aF-1.4278339391874892
aF-0.54582139346077696
aF-1.3779144305408937
aF-0.286542455977842
aF-0.053203956484779269
aF-0.38738395248827029
aF-2.1725094659335582
aF-0.035248251203309877
aF-0.076898503338313162
aF0.96954631508012934
aF-0.15077059763995582
aF-0.37522169557634566
aF-0.3413984745839036
aF-0.82541660484443291
aF0.39652311958769904
aF-0.14900555835630058
aF-0.81728785835725226
aF-1.9695169471896392
aF0.7302743560641014
aF-0.95887221041127635
aF0.75824338201285002
aF-0.89215243024961133
aF0.077918209327800803
aF-0.62639739556340368
aF0.12893464856729953
aF-0.21376380992235866
aF-1.7772609390093255
aF-0.22294038066696853
aF-0.029940972010593647
aF0.84976088611057055
aF0.11235861460788987
aF-1.0105102266861836
aF0.96804647583548764
aF-1.6110294352815693
aF0.51277685709740695
aF-0.86786183995659716
aF0.12274877263621953
aF-1.3693839196596369
aF-0.22160640672662346
aF-0.76463810836263146
aF-1.1137167672664869
aF0.80353762713893317
aF1.0766192743340532
aF0.16229701228814264
aF0.5999758856056232
aF-0.19468596907904789
aF-0.22285979930317712
aF-1.6368183694463294
aF-0.071860514605818437
aF-0.11537130095312031
aF0.066250500321074934
aF-0.23751531004482862
aF-2.0129687268545702
aF-0.1364644228570091
aF-1.3325509640605295
aF-0.11521288673136354
aF0.29303902100145152
aF1.0394472087957016
aF-1.4392202183930078
aF-0.081078848142826843
aF-0.0075721275805742394
aF-1.5828322850953658
aF-0.66746479401895265
aF-0.022598434032097714
aF0.97082314447763274
aF-0.72513454522545917
a.