(lp0
F-0.03980773640480173
aF-1.2093775210332529
aF0.4484807060759417
aF0.41998388216924765
aF0.38902505135502397
aF1.1016749369338394
aF0.79236698439541886
aF0.10983612783847407
aF-0.85115404309160736
aF-0.64359744964466792
aF0.36475878658924143
aF0.27226846535201021
aF1.3615071717730833
aF1.1462125549892206
aF0.56533991265579475
aF-0.29801406074570869
aF0.67860126134790777
aF0.56979650390964931
aF-0.72300912580114662
aF1.008289373466134
aF-1.7423885708767965
aF0.56781914371896525
aF0.60140527536469346
aF-0.030025292394516789
aF-1.947904759810613
aF-0.29379666113404745
aF-0.25669065256266599
aF0.069236979946979638
aF1.2342244246448129
aF1.11448633668713
aF-0.6616515098990039
aF-0.65262340912970762
aF0.71928478420511066
aF0.88624105219035965
aF-1.2612334901988884
aF-1.6929829294555803
aF-0.69959999888960178
aF0.61133974835197158
aF-0.23402127218523239
aF1.2285406898238396
aF-0.12178037836274314
aF-1.0708633590845809
aF0.9843801783152033
aF0.73787902654857662
aF-1.9739772661919672
aF-0.91699747031545265
aF1.944589759530766
aF-1.2314255519264186
aF-0.4673465876620555
aF-0.69007218162886241
aF1.3974137910181108
aF-0.98932978192565701
aF-0.36367179917440495
aF0.28787769822296383
aF0.51064483837680008
aF0.68676428663275635
aF-0.13412767909546464
aF0.91913542780426027
aF-1.8084099365555435
aF-1.3937913234357335
aF0.93075975606185324
aF1.2302612039100089
aF-1.3511009540334964
aF0.46493193690641421
aF-2.4728939358779565
aF0.19029263724794054
aF0.43835635840977183
aF1.0150605074126426
aF0.1807136928309987
aF-0.47745224824972476
aF-0.015983944094827507
aF-1.7297314083937936
aF1.5356004284234128
aF-0.7956692056235779
aF0.53216219191720526
aF0.95346889335624319
aF-0.70592004471237679
aF1.6131950561973349
aF-0.12148940905012928
aF0.40048136926155253
aF0.055084676479249417
aF0.28223572600621782
aF0.12900993480228706
aF-0.79559546171766948
aF0.97139022509696371
aF0.78541798858027789
aF0.14163415535644619
aF0.90883038810058903
aF0.23522463122820492
aF0.7776532173746471
aF-1.0611292126249716
aF-1.4694490396643709
aF0.090631310291130251
aF-0.89456367384905677
aF-2.2918921447126359
aF-0.39041125242995101
aF0.34829161154488375
aF-0.82181872833404901
aF-0.79582536692172123
aF-0.99244228500169429
aF0.4053809233541763
aF-0.085881680353606882
aF1.2638386953151195
aF-0.72968713212144198
aF-1.3310157839815959
aF1.0333458915423028
aF0.39241931415351727
aF0.45474148977530193
aF-1.1408350458018934
aF-1.1636293746360704
aF-0.12428548252359484
aF-0.37852802828140542
aF0.25703466213168547
aF-0.58552301200777546
aF1.1080987335520609
aF1.0359228993368195
aF0.69979847856736965
aF-0.73170219863773767
aF0.38943036957368138
aF-0.21861177258190301
aF-0.095584821671255149
aF1.1691871630061721
aF-0.48631950856752892
aF-0.042421155563493684
aF0.46078773701425835
aF0.8249743693703504
aF0.69809425575335382
aF-0.45476291836958627
aF-1.3835935768042025
aF1.0262409859537742
aF0.52800836135332485
aF0.45955849679873584
aF-0.3068489676331021
aF-0.81158904832761181
aF-1.1611581818986845
aF-0.77809510918247016
aF0.77149978252633744
aF0.016402625947474103
aF0.88454554177368472
aF0.7738783012410515
aF-0.15775739831217805
aF-1.7940612109461989
aF-0.88381210183423464
aF-0.24758918090112036
aF-0.074877282706761861
aF0.39287630006299068
aF1.0952677590543489
aF0.86571471707988579
aF0.95197382651000417
aF-1.0372899616251479
aF-0.73895993621588052
aF0.70198374765155691
aF-0.34475175942820924
aF-0.9897639869773398
aF-1.0462730021769504
aF0.6538751727841281
aF0.94752317310959633
aF1.2781614928181924
aF-0.52339864123319124
aF-0.93016417753612357
aF0.062611510814182481
aF1.1052936119896404
aF0.14180632470804611
aF0.32967306173358191
aF-0.061230313236957379
aF0.1490654542537615
aF-0.28182915823892518
aF0.99768704714579126
aF-2.7594159617775915
aF-0.97865002252874422
aF0.11411293235106479
aF-0.52746018888948054
aF-0.46472571172334032
aF-0.73144254596721758
aF1.0331288904799689
aF0.96862399981857816
aF0.71747254379106451
aF0.64703627566537625
aF0.80228593496012923
aF-0.012149194099330352
aF-0.010373662921558058
aF-1.2839813061901184
aF0.44949060094739135
aF-0.55714997055562021
aF0.34911729215407661
aF-0.82271291633469756
aF0.81976496228980356
aF-1.1188442388619118
aF0.19187975489033438
aF-1.5798861965469961
aF-2.5250887424723838
aF1.2712518718014336
aF-0.0095472376889320643
aF-0.69517830818426374
aF0.6834219252414675
aF0.25180197048364938
aF0.43092813539455044
aF-1.1471094557162145
aF0.49127511827278747
aF-1.6458766597590815
aF0.43169131367882096
aF0.65468632000953386
aF-0.26208510041790056
aF1.0429206403765807
aF0.52416835025046993
aF-0.069323065276147844
aF0.66601459272458374
aF-0.26547708334842124
aF0.88706987401951665
aF0.063223820239063588
aF-0.11619746638463191
aF0.93975818248906773
aF-1.085339660319339
aF1.3963303638159688
aF-1.8139627645186072
aF-1.1347045482257161
aF-0.97241270203306307
aF0.85400267670371033
aF0.5662198708324766
aF1.4790028317284589
aF-0.0064623311998319721
aF-1.438340720995738
aF0.83959324486261355
aF0.76536436983522194
aF0.45077742955037703
aF-0.18498624552462317
aF0.89207597962231411
aF-0.82872192343287576
aF-1.5341311361687717
aF0.79557248709687922
aF0.51029561417474545
aF0.82290121271720729
aF-0.6738353927028613
aF-1.6800105388373461
aF0.011051232139536182
aF1.0863013176952885
aF0.95889439225390216
aF0.023425577136661602
aF0.16181722148298627
aF0.057515767329002987
aF-1.3262888136912832
aF0.92463186515250673
aF0.86928193341963755
aF-0.81747124974961016
aF0.85146627789822826
aF0.77080451293581298
aF0.1888839253398058
aF-0.35246268333421149
aF0.26516853385336514
aF-1.0341079400807449
aF1.1219350460066115
aF-1.8632612176806713
aF-1.0329062651369467
aF-1.7944458765257281
aF1.0919951549806459
aF0.75404671770491216
aF1.1152035218451042
aF-1.3685535125080586
aF1.0299545237841139
aF-1.6539604459677806
aF0.79773432325068772
aF0.76471071341113284
aF1.1928507308617395
aF1.3694160358190555
aF0.094843176243332383
aF0.45423964848507437
aF1.2812682546807377
aF0.024959282932780269
aF0.63272375725360774
aF0.36290345133038171
aF1.1229907139745325
aF-1.058075766367268
a.