(lp0
F0.37893990342884587
aF1.2518481274365145
aF0.19755678058316084
aF-0.31072400084810869
aF-0.94275220852386932
aF-1.1631374324279875
aF0.079252436939632132
aF0.82989684308849476
aF0.54085253653767573
aF-0.34035445161844846
aF0.62271700834145394
aF0.75542017156165908
aF1.8640070233680626
aF-0.26866620491234805
aF1.2593349162967682
aF-0.048765926884451805
aF-0.43399358760416673
aF1.0521796136222954
aF1.0916942386431572
aF0.98261437349327974
aF-0.62100411464026584
aF0.66051739040260626
aF0.97648917704865656
aF-0.24109533209555423
aF-0.42550064305402957
aF0.75998467011925275
aF0.93179349050536286
aF-0.44010476257130371
aF0.14414825388583052
aF0.47620397345100685
aF-1.6818764579468128
aF-0.99740398344032277
aF-0.099919497565397641
aF1.9579401925252946
aF1.6977507135188121
aF1.8013854861606817
aF0.8905741476207063
aF1.6722457060391478
aF0.38414527582811298
aF1.7807567440849015
aF0.59658904801514456
aF-1.555147650146953
aF-1.1446399927787527
aF1.8444835271785158
aF0.12469975415381107
aF0.10981608654298802
aF1.2855752079097025
aF0.076022358265478207
aF-0.4160740106951617
aF-1.5361907054959203
aF1.3832757839979384
aF0.27378564371215752
aF-1.1326541878528307
aF-0.24796946322638291
aF-0.99919238019899681
aF-1.8404480224267861
aF0.77695617021202246
aF-0.17455819164451247
aF0.20895279813601153
aF-0.29170125580502271
aF1.059264800559534
aF-0.034712377770759417
aF-1.6929328416899767
aF-0.12969998475932298
aF-0.50536000524875235
aF-0.25093010626921242
aF-0.63803304485267986
aF0.76074678742203083
aF1.4315542296762667
aF-1.3774941920166164
aF-0.33513933946867347
aF1.8160290848448768
aF0.32097825798585644
aF1.717944057076668
aF-1.0111716301448705
aF-0.097512485125803794
aF-1.3609513292281452
aF-0.95093418901857563
aF0.77172904209165205
aF0.2303703085884794
aF-1.335415422739453
aF1.677133660380449
aF1.8455736414339512
aF0.66308230596514717
aF-1.6172510103225717
aF0.027739079351318807
aF0.82714387859090577
aF-0.15290862606261379
aF-1.3872798819911756
aF1.5501252099684466
aF0.64206093818167487
aF-0.40466544496118262
aF0.2030697571347404
aF2.6930173587441821
aF0.35982926980313978
aF0.89612945612738582
aF1.6926538356707845
aF0.25217789735527907
aF-0.19463534637333346
aF1.6929487082651322
aF0.88443321395532459
aF0.73363202109178971
aF-0.49930025563609881
aF0.55886516777895423
aF-0.16240358237892116
aF1.9804223019525877
aF-1.749326767460937
aF-0.76202715322952708
aF2.0984459788318937
aF2.1963887549818391
aF0.73025091818219101
aF0.22911131575492139
aF-0.86686371169184206
aF-0.36787694930114556
aF0.33064945152794367
aF1.1309511301549171
aF-1.5234161884552155
aF-1.5520520141880869
aF0.94996594593351302
aF-1.058928730074161
aF0.071302951008713311
aF1.3592552785658882
aF0.02229801766192141
aF1.0359304153436715
aF0.19755678058316084
aF0.10080431261831579
aF-1.0112091980815734
aF-1.2126541876437393
aF2.5361154858712762
aF0.31263915081918747
aF0.83157537711466878
aF-1.9588107379003823
aF-0.070710051324233358
aF-0.13479819222967926
aF0.27995579959070982
aF0.04925456773435366
aF1.6416311529524221
aF0.13059427666844847
aF-1.0594206391745669
aF-0.43186178699173894
aF-0.30014354929203213
aF-0.66304189766795196
aF1.5275875927747564
aF1.1353022410233695
aF0.028288452029422206
aF1.1334849448302151
aF1.7502776591695297
aF-1.4755126077195557
aF1.5308960241272542
aF2.0129553296764993
aF-0.84086907746238548
aF0.96401041063047543
aF-1.0434641952047325
aF-1.6934376357491678
aF0.49111072386890475
aF1.1635420804857666
aF0.14400095911575761
aF1.675120562314846
aF-1.3489286775463585
aF1.5190842767554043
aF1.086462839624595
aF2.1030939001858031
aF-0.95738206645043489
aF1.6663278176202303
aF1.2915471832681971
aF-0.95042362745951525
aF0.25069936703791607
aF1.0578559307629838
aF-0.21724589420009766
aF-0.70450659533190452
aF0.15761011870740083
aF1.6958266364080621
aF0.87148662843692115
aF-0.47348426817755818
aF1.3692926131356566
a.