(lp0
F-1.047050494270378
aF-1.2737716494545408
aF-1.2992452586519958
aF0.1799051809752692
aF-0.36518549052235327
aF0.84526056819731155
aF-0.34964413744703293
aF-1.3729462657954703
aF1.7445783035290985
aF0.065126056860202119
aF0.29274021806437389
aF-1.0885981027871541
aF0.44536770241851986
aF-0.52277975546751243
aF0.1326527303819276
aF0.20325653854829451
aF-0.31744984264617804
aF1.0795100598965566
aF0.53157929497642442
aF-0.5091303061394763
aF0.88195815084528206
aF0.17228639797125522
aF-0.73046536285535568
aF0.36973477375427466
aF-0.31374505096797822
aF0.37715948158124846
aF1.6107144164209952
aF0.45557862517413827
aF-0.033126826425339928
aF-0.50647630940867439
aF0.43295086539549388
aF1.0854295527886588
aF-0.55495346238839227
aF0.17436937180364831
aF1.1232925351184671
aF0.0014819766927085531
aF0.79888622501245043
aF-0.67722350321143709
aF0.62946840230453738
aF-0.16586809936797264
aF-0.80438293089504098
aF0.41922329718213502
aF-0.069458703317781367
aF0.20505520329879934
aF-0.65033762544723484
aF0.74560422925112757
aF-0.43139177986421551
aF-0.54931579038565737
aF-0.63670647229852206
aF1.515477910106183
aF-1.128150959972674
aF-0.7402277756162492
aF1.4412406329529945
aF1.4298747413494404
a.